target datalayout = "e-m:e-p270:32:32-p271:32:32-p272:64:64-i64:64-i128:128-f80:128-n8:16:32:64-S128"
target triple = "x86_64-pc-linux-gnu"

%"class.facebook::yoga::Config" = type { ptr, ptr, i8, i32, %"class.std::bitset", i32, float, ptr }
%"class.std::bitset" = type { %"struct.std::_Base_bitset" }
%"struct.std::_Base_bitset" = type { i64 }

; Function Attrs: mustprogress nounwind uwtable
define void @_ZN8facebook4yoga6Config9setErrataENS0_6ErrataE(ptr noundef nonnull align 8 dereferenceable(48) %0, i32 noundef %1) #1 align 2 {
  %3 = alloca ptr, align 8
  %4 = alloca i32, align 4
  store ptr %0, ptr %3, align 8, !tbaa !4
  store i32 %1, ptr %4, align 4, !tbaa !28
  %5 = load ptr, ptr %3, align 8
  %6 = getelementptr inbounds nuw %"class.facebook::yoga::Config", ptr %5, i32 0, i32 5
  %7 = load i32, ptr %6, align 8, !tbaa !9
  %8 = load i32, ptr %4, align 4, !tbaa !28
  %9 = icmp ne i32 %7, %8
  br i1 %9, label %10, label %16

10:                                               ; preds = %2
  %11 = load i32, ptr %4, align 4, !tbaa !28
  %12 = getelementptr inbounds nuw %"class.facebook::yoga::Config", ptr %5, i32 0, i32 5
  store i32 %11, ptr %12, align 8, !tbaa !9
  %13 = getelementptr inbounds nuw %"class.facebook::yoga::Config", ptr %5, i32 0, i32 3
  %14 = load i32, ptr %13, align 4, !tbaa !26
  %15 = add i32 %14, 1
  store i32 %15, ptr %13, align 4, !tbaa !26
  br label %16

16:                                               ; preds = %10, %2
  ret void
}