; Function Attrs: mustprogress nofree norecurse nosync nounwind willreturn memory(argmem: readwrite) uwtable
define void @_ZN8facebook4yoga6Config9setErrataENS0_6ErrataE(ptr noundef nonnull align 8 captures(none) dereferenceable(48) %0, i32 noundef %1) local_unnamed_addr #1 align 2 {
  %3 = getelementptr inbounds nuw i8, ptr %0, i64 32
  %4 = load i32, ptr %3, align 8, !tbaa !4
  %.not = icmp eq i32 %4, %1
  br i1 %.not, label %9, label %5

5:                                                ; preds = %2
  store i32 %1, ptr %3, align 8, !tbaa !4
  %6 = getelementptr inbounds nuw i8, ptr %0, i64 20
  %7 = load i32, ptr %6, align 4, !tbaa !19
  %8 = add i32 %7, 1
  store i32 %8, ptr %6, align 4, !tbaa !19
  br label %9

9:                                                ; preds = %5, %2
  ret void
}